; ModuleID = '45/40.c'
source_filename = "45/40.c"
target datalayout = "e-m:e-p270:32:32-p271:32:32-p272:64:64-i64:64-f80:128-n8:16:32:64-S128"
target triple = "x86_64-pc-linux-gnu"

@.str = private unnamed_addr constant [6 x i8] c"%s %s\00", align 1
@.str.1 = private unnamed_addr constant [3 x i8] c"%d\00", align 1

; Function Attrs: noinline nounwind uwtable
define dso_local i32 @main(i32 %0, i8** %1) #0 {
  %3 = alloca i32, align 4
  %4 = alloca i32, align 4
  %5 = alloca i8**, align 8
  %6 = alloca [50 x i8], align 16
  %7 = alloca [50 x i8], align 16
  %8 = alloca i32, align 4
  %9 = alloca i32, align 4
  %10 = alloca i32, align 4
  %11 = alloca i32, align 4
  %12 = alloca i32, align 4
  %13 = alloca i32, align 4
  %14 = alloca i32, align 4
  store i32 0, i32* %3, align 4
  store i32 %0, i32* %4, align 4
  store i8** %1, i8*** %5, align 8
  %15 = getelementptr inbounds [50 x i8], [50 x i8]* %6, i64 0, i64 0
  %16 = getelementptr inbounds [50 x i8], [50 x i8]* %7, i64 0, i64 0
  %17 = call i32 (i8*, ...) @__isoc99_scanf(i8* getelementptr inbounds ([6 x i8], [6 x i8]* @.str, i64 0, i64 0), i8* %15, i8* %16)
  %18 = getelementptr inbounds [50 x i8], [50 x i8]* %6, i64 0, i64 0
  %19 = call i64 @strlen(i8* %18) #3
  %20 = trunc i64 %19 to i32
  store i32 %20, i32* %8, align 4
  %21 = getelementptr inbounds [50 x i8], [50 x i8]* %7, i64 0, i64 0
  %22 = call i64 @strlen(i8* %21) #3
  %23 = trunc i64 %22 to i32
  store i32 %23, i32* %9, align 4
  store i32 0, i32* %10, align 4
  br label %24

24:                                               ; preds = %79, %2
  %25 = load i32, i32* %10, align 4
  %26 = load i32, i32* %9, align 4
  %27 = icmp slt i32 %25, %26
  br i1 %27, label %28, label %82

28:                                               ; preds = %24
  store i32 0, i32* %12, align 4
  %29 = load i32, i32* %10, align 4
  store i32 %29, i32* %11, align 4
  store i32 0, i32* %13, align 4
  br label %30

30:                                               ; preds = %54, %28
  %31 = load i32, i32* %13, align 4
  %32 = load i32, i32* %8, align 4
  %33 = icmp slt i32 %31, %32
  br i1 %33, label %34, label %57

34:                                               ; preds = %30
  %35 = load i32, i32* %13, align 4
  %36 = sext i32 %35 to i64
  %37 = getelementptr inbounds [50 x i8], [50 x i8]* %6, i64 0, i64 %36
  %38 = load i8, i8* %37, align 1
  %39 = sext i8 %38 to i32
  %40 = load i32, i32* %11, align 4
  %41 = sext i32 %40 to i64
  %42 = getelementptr inbounds [50 x i8], [50 x i8]* %7, i64 0, i64 %41
  %43 = load i8, i8* %42, align 1
  %44 = sext i8 %43 to i32
  %45 = icmp eq i32 %39, %44
  br i1 %45, label %46, label %49

46:                                               ; preds = %34
  %47 = load i32, i32* %12, align 4
  %48 = add nsw i32 %47, 1
  store i32 %48, i32* %12, align 4
  br label %51

49:                                               ; preds = %34
  %50 = load i32, i32* %12, align 4
  store i32 %50, i32* %12, align 4
  br label %51

51:                                               ; preds = %49, %46
  %52 = load i32, i32* %11, align 4
  %53 = add nsw i32 %52, 1
  store i32 %53, i32* %11, align 4
  br label %54

54:                                               ; preds = %51
  %55 = load i32, i32* %13, align 4
  %56 = add nsw i32 %55, 1
  store i32 %56, i32* %13, align 4
  br label %30

57:                                               ; preds = %30
  %58 = load i32, i32* %12, align 4
  %59 = load i32, i32* %8, align 4
  %60 = icmp eq i32 %58, %59
  br i1 %60, label %61, label %78

61:                                               ; preds = %57
  %62 = load i32, i32* %11, align 4
  %63 = load i32, i32* %8, align 4
  %64 = sub nsw i32 %62, %63
  %65 = call i32 (i8*, ...) @printf(i8* getelementptr inbounds ([3 x i8], [3 x i8]* @.str.1, i64 0, i64 0), i32 %64)
  store i32 0, i32* %14, align 4
  br label %66

66:                                               ; preds = %74, %61
  %67 = load i32, i32* %14, align 4
  %68 = load i32, i32* %8, align 4
  %69 = icmp slt i32 %67, %68
  br i1 %69, label %70, label %77

70:                                               ; preds = %66
  %71 = load i32, i32* %14, align 4
  %72 = sext i32 %71 to i64
  %73 = getelementptr inbounds [50 x i8], [50 x i8]* %6, i64 0, i64 %72
  store i8 49, i8* %73, align 1
  br label %74

74:                                               ; preds = %70
  %75 = load i32, i32* %14, align 4
  %76 = add nsw i32 %75, 1
  store i32 %76, i32* %14, align 4
  br label %66

77:                                               ; preds = %66
  br label %78

78:                                               ; preds = %77, %57
  br label %79

79:                                               ; preds = %78
  %80 = load i32, i32* %10, align 4
  %81 = add nsw i32 %80, 1
  store i32 %81, i32* %10, align 4
  br label %24

82:                                               ; preds = %24
  ret i32 0
}

declare dso_local i32 @__isoc99_scanf(i8*, ...) #1

; Function Attrs: nounwind readonly
declare dso_local i64 @strlen(i8*) #2

declare dso_local i32 @printf(i8*, ...) #1


!llvm.module.flags = !{!0}
!llvm.ident = !{!1}

!0 = !{i32 1, !"wchar_size", i32 4}
!1 = !{!"clang version 10.0.0-4ubuntu1 "}
